; ModuleID = '16/1380.c'
source_filename = "16/1380.c"
target datalayout = "e-m:e-p270:32:32-p271:32:32-p272:64:64-i64:64-f80:128-n8:16:32:64-S128"
target triple = "x86_64-pc-linux-gnu"

@.str = private unnamed_addr constant [3 x i8] c"%d\00", align 1
@.str.1 = private unnamed_addr constant [2 x i8] c"0\00", align 1
@.str.2 = private unnamed_addr constant [4 x i8] c"%d\0A\00", align 1
@.str.3 = private unnamed_addr constant [6 x i8] c"%d%d\0A\00", align 1
@.str.4 = private unnamed_addr constant [8 x i8] c"%d%d%d\0A\00", align 1
@.str.5 = private unnamed_addr constant [10 x i8] c"%d%d%d%d\0A\00", align 1
@.str.6 = private unnamed_addr constant [12 x i8] c"%d%d%d%d%d\0A\00", align 1

; Function Attrs: noinline nounwind uwtable
define dso_local i32 @main() #0 {
  %1 = alloca i32, align 4
  %2 = alloca i32, align 4
  %3 = alloca i32, align 4
  %4 = alloca i32, align 4
  %5 = alloca i32, align 4
  %6 = alloca i32, align 4
  %7 = alloca i32, align 4
  %8 = alloca i32, align 4
  %9 = alloca i32, align 4
  store i32 0, i32* %1, align 4
  %10 = call i32 (i8*, ...) @__isoc99_scanf(i8* getelementptr inbounds ([3 x i8], [3 x i8]* @.str, i64 0, i64 0), i32* %3)
  store i32 0, i32* %4, align 4
  %11 = load i32, i32* %3, align 4
  store i32 %11, i32* %2, align 4
  %12 = load i32, i32* %3, align 4
  %13 = icmp eq i32 %12, 0
  br i1 %13, label %14, label %16

14:                                               ; preds = %0
  %15 = call i32 (i8*, ...) @printf(i8* getelementptr inbounds ([2 x i8], [2 x i8]* @.str.1, i64 0, i64 0))
  br label %26

16:                                               ; preds = %0
  br label %17

17:                                               ; preds = %20, %16
  %18 = load i32, i32* %2, align 4
  %19 = icmp sgt i32 %18, 0
  br i1 %19, label %20, label %25

20:                                               ; preds = %17
  %21 = load i32, i32* %2, align 4
  %22 = sdiv i32 %21, 10
  store i32 %22, i32* %2, align 4
  %23 = load i32, i32* %4, align 4
  %24 = add nsw i32 %23, 1
  store i32 %24, i32* %4, align 4
  br label %17

25:                                               ; preds = %17
  br label %26

26:                                               ; preds = %25, %14
  %27 = load i32, i32* %3, align 4
  %28 = srem i32 %27, 10
  store i32 %28, i32* %5, align 4
  %29 = load i32, i32* %3, align 4
  %30 = sdiv i32 %29, 10
  %31 = srem i32 %30, 10
  store i32 %31, i32* %6, align 4
  %32 = load i32, i32* %3, align 4
  %33 = sdiv i32 %32, 100
  %34 = srem i32 %33, 10
  store i32 %34, i32* %7, align 4
  %35 = load i32, i32* %3, align 4
  %36 = sdiv i32 %35, 1000
  %37 = srem i32 %36, 10
  store i32 %37, i32* %8, align 4
  %38 = load i32, i32* %3, align 4
  %39 = sdiv i32 %38, 10000
  store i32 %39, i32* %9, align 4
  %40 = load i32, i32* %4, align 4
  switch i32 %40, label %66 [
    i32 1, label %41
    i32 2, label %44
    i32 3, label %48
    i32 4, label %53
    i32 5, label %59
  ]

41:                                               ; preds = %26
  %42 = load i32, i32* %3, align 4
  %43 = call i32 (i8*, ...) @printf(i8* getelementptr inbounds ([4 x i8], [4 x i8]* @.str.2, i64 0, i64 0), i32 %42)
  br label %66

44:                                               ; preds = %26
  %45 = load i32, i32* %5, align 4
  %46 = load i32, i32* %6, align 4
  %47 = call i32 (i8*, ...) @printf(i8* getelementptr inbounds ([6 x i8], [6 x i8]* @.str.3, i64 0, i64 0), i32 %45, i32 %46)
  br label %66

48:                                               ; preds = %26
  %49 = load i32, i32* %5, align 4
  %50 = load i32, i32* %6, align 4
  %51 = load i32, i32* %7, align 4
  %52 = call i32 (i8*, ...) @printf(i8* getelementptr inbounds ([8 x i8], [8 x i8]* @.str.4, i64 0, i64 0), i32 %49, i32 %50, i32 %51)
  br label %66

53:                                               ; preds = %26
  %54 = load i32, i32* %5, align 4
  %55 = load i32, i32* %6, align 4
  %56 = load i32, i32* %7, align 4
  %57 = load i32, i32* %8, align 4
  %58 = call i32 (i8*, ...) @printf(i8* getelementptr inbounds ([10 x i8], [10 x i8]* @.str.5, i64 0, i64 0), i32 %54, i32 %55, i32 %56, i32 %57)
  br label %66

59:                                               ; preds = %26
  %60 = load i32, i32* %5, align 4
  %61 = load i32, i32* %6, align 4
  %62 = load i32, i32* %7, align 4
  %63 = load i32, i32* %8, align 4
  %64 = load i32, i32* %9, align 4
  %65 = call i32 (i8*, ...) @printf(i8* getelementptr inbounds ([12 x i8], [12 x i8]* @.str.6, i64 0, i64 0), i32 %60, i32 %61, i32 %62, i32 %63, i32 %64)
  br label %66

66:                                               ; preds = %26, %59, %53, %48, %44, %41
  ret i32 0
}

declare dso_local i32 @__isoc99_scanf(i8*, ...) #1

declare dso_local i32 @printf(i8*, ...) #1


!llvm.module.flags = !{!0}
!llvm.ident = !{!1}

!0 = !{i32 1, !"wchar_size", i32 4}
!1 = !{!"clang version 10.0.0-4ubuntu1 "}
