; ModuleID = 'source-C-CXX/15/1380.c'
source_filename = "source-C-CXX/15/1380.c"
target datalayout = "e-m:e-p270:32:32-p271:32:32-p272:64:64-i64:64-f80:128-n8:16:32:64-S128"
target triple = "x86_64-pc-linux-gnu"

@.str = private unnamed_addr constant [3 x i8] c"%d\00", align 1
@.str.2 = private unnamed_addr constant [4 x i8] c"%d\0A\00", align 1
@.str.3 = private unnamed_addr constant [6 x i8] c"%d%d\0A\00", align 1
@.str.4 = private unnamed_addr constant [8 x i8] c"%d%d%d\0A\00", align 1
@.str.5 = private unnamed_addr constant [10 x i8] c"%d%d%d%d\0A\00", align 1
@.str.6 = private unnamed_addr constant [12 x i8] c"%d%d%d%d%d\0A\00", align 1

; Function Attrs: nofree nounwind sspstrong uwtable
define dso_local i32 @main() local_unnamed_addr #0 {
  %1 = alloca i32, align 4
  %2 = bitcast i32* %1 to i8*
  call void @llvm.lifetime.start.p0i8(i64 4, i8* nonnull %2) #4
  %3 = call i32 (i8*, ...) @__isoc99_scanf(i8* getelementptr inbounds ([3 x i8], [3 x i8]* @.str, i64 0, i64 0), i32* nonnull %1)
  %4 = load i32, i32* %1, align 4, !tbaa !5
  %5 = icmp eq i32 %4, 0
  br i1 %5, label %8, label %6

6:                                                ; preds = %0
  %7 = icmp sgt i32 %4, 0
  br i1 %7, label %10, label %35

8:                                                ; preds = %0
  %9 = call i32 @putchar(i32 48)
  br label %35

10:                                               ; preds = %6, %10
  %11 = phi i32 [ %13, %10 ], [ %4, %6 ]
  %12 = phi i32 [ %14, %10 ], [ 0, %6 ]
  %13 = udiv i32 %11, 10
  %14 = add nuw nsw i32 %12, 1
  %15 = icmp ult i32 %11, 10
  br i1 %15, label %16, label %10, !llvm.loop !9

16:                                               ; preds = %10
  %17 = srem i32 %4, 10
  %18 = sdiv i32 %4, 10
  %19 = srem i32 %18, 10
  %20 = sdiv i32 %4, 100
  %21 = srem i32 %20, 10
  %22 = sdiv i32 %4, 1000
  %23 = srem i32 %22, 10
  switch i32 %12, label %35 [
    i32 0, label %24
    i32 1, label %26
    i32 2, label %28
    i32 3, label %30
    i32 4, label %32
  ]

24:                                               ; preds = %16
  %25 = call i32 (i8*, ...) @printf(i8* nonnull dereferenceable(1) getelementptr inbounds ([4 x i8], [4 x i8]* @.str.2, i64 0, i64 0), i32 %4)
  br label %35

26:                                               ; preds = %16
  %27 = call i32 (i8*, ...) @printf(i8* nonnull dereferenceable(1) getelementptr inbounds ([6 x i8], [6 x i8]* @.str.3, i64 0, i64 0), i32 %17, i32 %19)
  br label %35

28:                                               ; preds = %16
  %29 = call i32 (i8*, ...) @printf(i8* nonnull dereferenceable(1) getelementptr inbounds ([8 x i8], [8 x i8]* @.str.4, i64 0, i64 0), i32 %17, i32 %19, i32 %21)
  br label %35

30:                                               ; preds = %16
  %31 = call i32 (i8*, ...) @printf(i8* nonnull dereferenceable(1) getelementptr inbounds ([10 x i8], [10 x i8]* @.str.5, i64 0, i64 0), i32 %17, i32 %19, i32 %21, i32 %23)
  br label %35

32:                                               ; preds = %16
  %33 = sdiv i32 %4, 10000
  %34 = call i32 (i8*, ...) @printf(i8* nonnull dereferenceable(1) getelementptr inbounds ([12 x i8], [12 x i8]* @.str.6, i64 0, i64 0), i32 %17, i32 %19, i32 %21, i32 %23, i32 %33)
  br label %35

35:                                               ; preds = %6, %8, %16, %32, %30, %28, %26, %24
  call void @llvm.lifetime.end.p0i8(i64 4, i8* nonnull %2) #4
  ret i32 0
}

; Function Attrs: argmemonly mustprogress nofree nosync nounwind willreturn
declare void @llvm.lifetime.start.p0i8(i64 immarg, i8* nocapture) #1

; Function Attrs: nofree nounwind
declare noundef i32 @__isoc99_scanf(i8* nocapture noundef readonly, ...) local_unnamed_addr #2

; Function Attrs: nofree nounwind
declare noundef i32 @printf(i8* nocapture noundef readonly, ...) local_unnamed_addr #2

; Function Attrs: argmemonly mustprogress nofree nosync nounwind willreturn
declare void @llvm.lifetime.end.p0i8(i64 immarg, i8* nocapture) #1

; Function Attrs: nofree nounwind
declare noundef i32 @putchar(i32 noundef) local_unnamed_addr #3


!llvm.module.flags = !{!0, !1, !2, !3}
!llvm.ident = !{!4}

!0 = !{i32 1, !"wchar_size", i32 4}
!1 = !{i32 7, !"PIC Level", i32 2}
!2 = !{i32 7, !"PIE Level", i32 2}
!3 = !{i32 7, !"uwtable", i32 1}
!4 = !{!"clang version 13.0.0"}
!5 = !{!6, !6, i64 0}
!6 = !{!"int", !7, i64 0}
!7 = !{!"omnipotent char", !8, i64 0}
!8 = !{!"Simple C/C++ TBAA"}
!9 = distinct !{!9, !10}
!10 = !{!"llvm.loop.mustprogress"}
